; ModuleID = '44/1109.c'
source_filename = "44/1109.c"
target datalayout = "e-m:e-p270:32:32-p271:32:32-p272:64:64-i64:64-f80:128-n8:16:32:64-S128"
target triple = "x86_64-pc-linux-gnu"

@.str = private unnamed_addr constant [3 x i8] c"%d\00", align 1
@.str.1 = private unnamed_addr constant [4 x i8] c"%d\0A\00", align 1

; Function Attrs: noinline nounwind uwtable
define dso_local i32 @main(i32 %0, i8** %1) #0 {
  %3 = alloca i32, align 4
  %4 = alloca i32, align 4
  %5 = alloca i8**, align 8
  %6 = alloca i32, align 4
  %7 = alloca i32, align 4
  store i32 0, i32* %3, align 4
  store i32 %0, i32* %4, align 4
  store i8** %1, i8*** %5, align 8
  store i32 0, i32* %6, align 4
  br label %8

8:                                                ; preds = %16, %2
  %9 = load i32, i32* %6, align 4
  %10 = icmp slt i32 %9, 6
  br i1 %10, label %11, label %19

11:                                               ; preds = %8
  %12 = call i32 (i8*, ...) @__isoc99_scanf(i8* getelementptr inbounds ([3 x i8], [3 x i8]* @.str, i64 0, i64 0), i32* %7)
  %13 = load i32, i32* %7, align 4
  %14 = call i32 @reverse(i32 %13)
  %15 = call i32 (i8*, ...) @printf(i8* getelementptr inbounds ([4 x i8], [4 x i8]* @.str.1, i64 0, i64 0), i32 %14)
  br label %16

16:                                               ; preds = %11
  %17 = load i32, i32* %6, align 4
  %18 = add nsw i32 %17, 1
  store i32 %18, i32* %6, align 4
  br label %8

19:                                               ; preds = %8
  %20 = load i32, i32* %3, align 4
  ret i32 %20
}

declare dso_local i32 @__isoc99_scanf(i8*, ...) #1

declare dso_local i32 @printf(i8*, ...) #1

; Function Attrs: noinline nounwind uwtable
define dso_local i32 @reverse(i32 %0) #0 {
  %2 = alloca i32, align 4
  %3 = alloca i32, align 4
  %4 = alloca i32, align 4
  %5 = alloca i32, align 4
  %6 = alloca i32, align 4
  store i32 %0, i32* %2, align 4
  %7 = load i32, i32* %2, align 4
  %8 = icmp sge i32 %7, 0
  br i1 %8, label %9, label %31

9:                                                ; preds = %1
  %10 = load i32, i32* %2, align 4
  store i32 %10, i32* %4, align 4
  store i32 0, i32* %5, align 4
  store i32 0, i32* %6, align 4
  br label %11

11:                                               ; preds = %27, %9
  %12 = load i32, i32* %6, align 4
  %13 = icmp slt i32 %12, 32
  br i1 %13, label %14, label %30

14:                                               ; preds = %11
  %15 = load i32, i32* %4, align 4
  %16 = srem i32 %15, 10
  store i32 %16, i32* %3, align 4
  %17 = load i32, i32* %4, align 4
  %18 = sdiv i32 %17, 10
  store i32 %18, i32* %4, align 4
  %19 = load i32, i32* %5, align 4
  %20 = mul nsw i32 %19, 10
  %21 = load i32, i32* %3, align 4
  %22 = add nsw i32 %20, %21
  store i32 %22, i32* %5, align 4
  %23 = load i32, i32* %4, align 4
  %24 = icmp eq i32 %23, 0
  br i1 %24, label %25, label %26

25:                                               ; preds = %14
  br label %30

26:                                               ; preds = %14
  br label %27

27:                                               ; preds = %26
  %28 = load i32, i32* %6, align 4
  %29 = add nsw i32 %28, 1
  store i32 %29, i32* %6, align 4
  br label %11

30:                                               ; preds = %25, %11
  br label %56

31:                                               ; preds = %1
  %32 = load i32, i32* %2, align 4
  %33 = sub nsw i32 0, %32
  store i32 %33, i32* %4, align 4
  store i32 0, i32* %5, align 4
  store i32 0, i32* %6, align 4
  br label %34

34:                                               ; preds = %50, %31
  %35 = load i32, i32* %6, align 4
  %36 = icmp slt i32 %35, 32
  br i1 %36, label %37, label %53

37:                                               ; preds = %34
  %38 = load i32, i32* %4, align 4
  %39 = srem i32 %38, 10
  store i32 %39, i32* %3, align 4
  %40 = load i32, i32* %4, align 4
  %41 = sdiv i32 %40, 10
  store i32 %41, i32* %4, align 4
  %42 = load i32, i32* %5, align 4
  %43 = mul nsw i32 %42, 10
  %44 = load i32, i32* %3, align 4
  %45 = add nsw i32 %43, %44
  store i32 %45, i32* %5, align 4
  %46 = load i32, i32* %4, align 4
  %47 = icmp eq i32 %46, 0
  br i1 %47, label %48, label %49

48:                                               ; preds = %37
  br label %53

49:                                               ; preds = %37
  br label %50

50:                                               ; preds = %49
  %51 = load i32, i32* %6, align 4
  %52 = add nsw i32 %51, 1
  store i32 %52, i32* %6, align 4
  br label %34

53:                                               ; preds = %48, %34
  %54 = load i32, i32* %5, align 4
  %55 = sub nsw i32 0, %54
  store i32 %55, i32* %5, align 4
  br label %56

56:                                               ; preds = %53, %30
  %57 = load i32, i32* %5, align 4
  ret i32 %57
}


!llvm.module.flags = !{!0}
!llvm.ident = !{!1}

!0 = !{i32 1, !"wchar_size", i32 4}
!1 = !{!"clang version 10.0.0-4ubuntu1 "}
